target datalayout = "e-m:e-p270:32:32-p271:32:32-p272:64:64-i64:64-i128:128-f80:128-n8:16:32:64-S128"
target triple = "x86_64-pc-linux-gnu"

%"class.std::__cxx11::basic_string" = type { %"struct.std::__cxx11::basic_string<char>::_Alloc_hider", i64, %union.anon }
%"struct.std::__cxx11::basic_string<char>::_Alloc_hider" = type { ptr }
%union.anon = type { i64, [8 x i8] }
%"class.google::protobuf::internal::LogMessage" = type { i32, ptr, i32, %"class.std::__cxx11::basic_string" }
%"class.google::protobuf::internal::LogFinisher" = type { i8 }
%"class.google::protobuf::FieldDescriptor" = type { %"class.google::protobuf::internal::SymbolBase", i8, i8, i8, i32, ptr, ptr, ptr, ptr, %union.anon.37, %union.anon.38, ptr, %union.anon.39 }
%"class.google::protobuf::internal::SymbolBase" = type { i8 }
%union.anon.37 = type { ptr }
%union.anon.38 = type { ptr }
%union.anon.39 = type { i64 }

@.str.1 = private unnamed_addr constant [144 x i8] c"generated/home/dtcxzyw/WorkSpace/Projects/compilers/llvm-opt-benchmark/bench/opencv/opencv/3rdparty/protobuf/src/google/protobuf/text_format.cc\00", align 1
@.str.2 = private unnamed_addr constant [50 x i8] c"Index must be in range of repeated field values. \00", align 1
@.str.3 = private unnamed_addr constant [8 x i8] c"Field: \00", align 1
@.str.4 = private unnamed_addr constant [38 x i8] c"Index must be -1 for singular fields.\00", align 1

; Function Attrs: inlinehint mustprogress nounwind uwtable
define linkonce_odr hidden noundef i32 @_ZNK6google8protobuf15FieldDescriptor5labelEv(ptr noundef nonnull align 8 dereferenceable(72) %0) #7 comdat align 2 {
  %2 = alloca ptr, align 8
  store ptr %0, ptr %2, align 8, !tbaa !58
  %3 = load ptr, ptr %2, align 8
  %4 = getelementptr inbounds nuw %"class.google::protobuf::FieldDescriptor", ptr %3, i32 0, i32 1
  %5 = load i8, ptr %4, align 1
  %6 = lshr i8 %5, 5
  %7 = and i8 %6, 3
  %8 = zext i8 %7 to i32
  ret i32 %8
}

; Function Attrs: inlinehint mustprogress nounwind uwtable
define linkonce_odr hidden noundef nonnull align 8 dereferenceable(32) ptr @_ZNK6google8protobuf15FieldDescriptor4nameB5cxx11Ev(ptr noundef nonnull align 8 dereferenceable(72) %0) #7 comdat align 2 {
  %2 = alloca ptr, align 8
  store ptr %0, ptr %2, align 8, !tbaa !58
  %3 = load ptr, ptr %2, align 8
  %4 = getelementptr inbounds nuw %"class.google::protobuf::FieldDescriptor", ptr %3, i32 0, i32 5
  %5 = load ptr, ptr %4, align 8, !tbaa !96
  %6 = getelementptr inbounds %"class.std::__cxx11::basic_string", ptr %5, i64 0
  ret ptr %6
}

; Function Attrs: inlinehint mustprogress uwtable
define linkonce_odr hidden noundef zeroext i1 @_ZNK6google8protobuf15FieldDescriptor11is_repeatedEv(ptr noundef nonnull align 8 dereferenceable(72) %0) #10 comdat align 2 {
  %2 = alloca ptr, align 8
  store ptr %0, ptr %2, align 8, !tbaa !58
  %3 = load ptr, ptr %2, align 8
  %4 = call noundef i32 @_ZNK6google8protobuf15FieldDescriptor5labelEv(ptr noundef nonnull align 8 dereferenceable(72) %3)
  %5 = icmp eq i32 %4, 3
  ret i1 %5
}

; Function Attrs: mustprogress uwtable
define hidden void @_ZN6google8protobuf15CheckFieldIndexEPKNS0_15FieldDescriptorEi(ptr noundef %0, i32 noundef %1) #4 personality ptr @__gxx_personality_v0 {
  %3 = alloca ptr, align 8
  %4 = alloca i32, align 4
  %5 = alloca %"class.google::protobuf::internal::LogMessage", align 8
  %6 = alloca ptr, align 8
  %7 = alloca i32, align 4
  %8 = alloca %"class.google::protobuf::internal::LogFinisher", align 1
  %9 = alloca %"class.google::protobuf::internal::LogMessage", align 8
  %10 = alloca %"class.google::protobuf::internal::LogFinisher", align 1
  store ptr %0, ptr %3, align 8, !tbaa !58
  store i32 %1, ptr %4, align 4, !tbaa !95
  %11 = load ptr, ptr %3, align 8, !tbaa !58
  %12 = icmp eq ptr %11, null
  br i1 %12, label %13, label %14

13:                                               ; preds = %2
  br label %67

14:                                               ; preds = %2
  %15 = load ptr, ptr %3, align 8, !tbaa !58
  %16 = call noundef zeroext i1 @_ZNK6google8protobuf15FieldDescriptor11is_repeatedEv(ptr noundef nonnull align 8 dereferenceable(72) %15)
  br i1 %16, label %17, label %40

17:                                               ; preds = %14
  %18 = load i32, ptr %4, align 4, !tbaa !95
  %19 = icmp eq i32 %18, -1
  br i1 %19, label %20, label %40

20:                                               ; preds = %17
  call void @llvm.lifetime.start.p0(i64 56, ptr %5) #3
  call void @_ZN6google8protobuf8internal10LogMessageC1ENS0_8LogLevelEPKci(ptr noundef nonnull align 8 dereferenceable(56) %5, i32 noundef 2, ptr noundef @.str.1, i32 noundef 162)
  %21 = invoke noundef nonnull align 8 dereferenceable(56) ptr @_ZN6google8protobuf8internal10LogMessagelsEPKc(ptr noundef nonnull align 8 dereferenceable(56) %5, ptr noundef @.str.2)
          to label %22 unwind label %31

22:                                               ; preds = %20
  %23 = invoke noundef nonnull align 8 dereferenceable(56) ptr @_ZN6google8protobuf8internal10LogMessagelsEPKc(ptr noundef nonnull align 8 dereferenceable(56) %21, ptr noundef @.str.3)
          to label %24 unwind label %31

24:                                               ; preds = %22
  %25 = load ptr, ptr %3, align 8, !tbaa !58
  %26 = invoke noundef nonnull align 8 dereferenceable(32) ptr @_ZNK6google8protobuf15FieldDescriptor4nameB5cxx11Ev(ptr noundef nonnull align 8 dereferenceable(72) %25)
          to label %27 unwind label %31

27:                                               ; preds = %24
  %28 = invoke noundef nonnull align 8 dereferenceable(56) ptr @_ZN6google8protobuf8internal10LogMessagelsERKNSt7__cxx1112basic_stringIcSt11char_traitsIcESaIcEEE(ptr noundef nonnull align 8 dereferenceable(56) %23, ptr noundef nonnull align 8 dereferenceable(32) %26)
          to label %29 unwind label %31

29:                                               ; preds = %27
  call void @llvm.lifetime.start.p0(i64 1, ptr %8) #3
  invoke void @_ZN6google8protobuf8internal11LogFinisheraSERNS1_10LogMessageE(ptr noundef nonnull align 1 dereferenceable(1) %8, ptr noundef nonnull align 8 dereferenceable(56) %28)
          to label %30 unwind label %35

30:                                               ; preds = %29
  call void @llvm.lifetime.end.p0(i64 1, ptr %8) #3
  call void @_ZN6google8protobuf8internal10LogMessageD1Ev(ptr noundef nonnull align 8 dereferenceable(56) %5) #3
  call void @llvm.lifetime.end.p0(i64 56, ptr %5) #3
  br label %67

31:                                               ; preds = %27, %24, %22, %20
  %32 = landingpad { ptr, i32 }
          cleanup
  %33 = extractvalue { ptr, i32 } %32, 0
  store ptr %33, ptr %6, align 8
  %34 = extractvalue { ptr, i32 } %32, 1
  store i32 %34, ptr %7, align 4
  br label %39

35:                                               ; preds = %29
  %36 = landingpad { ptr, i32 }
          cleanup
  %37 = extractvalue { ptr, i32 } %36, 0
  store ptr %37, ptr %6, align 8
  %38 = extractvalue { ptr, i32 } %36, 1
  store i32 %38, ptr %7, align 4
  call void @llvm.lifetime.end.p0(i64 1, ptr %8) #3
  br label %39

39:                                               ; preds = %35, %31
  call void @_ZN6google8protobuf8internal10LogMessageD1Ev(ptr noundef nonnull align 8 dereferenceable(56) %5) #3
  call void @llvm.lifetime.end.p0(i64 56, ptr %5) #3
  br label %68

40:                                               ; preds = %17, %14
  %41 = load ptr, ptr %3, align 8, !tbaa !58
  %42 = call noundef zeroext i1 @_ZNK6google8protobuf15FieldDescriptor11is_repeatedEv(ptr noundef nonnull align 8 dereferenceable(72) %41)
  br i1 %42, label %66, label %43

43:                                               ; preds = %40
  %44 = load i32, ptr %4, align 4, !tbaa !95
  %45 = icmp ne i32 %44, -1
  br i1 %45, label %46, label %66

46:                                               ; preds = %43
  call void @llvm.lifetime.start.p0(i64 56, ptr %9) #3
  call void @_ZN6google8protobuf8internal10LogMessageC1ENS0_8LogLevelEPKci(ptr noundef nonnull align 8 dereferenceable(56) %9, i32 noundef 2, ptr noundef @.str.1, i32 noundef 165)
  %47 = invoke noundef nonnull align 8 dereferenceable(56) ptr @_ZN6google8protobuf8internal10LogMessagelsEPKc(ptr noundef nonnull align 8 dereferenceable(56) %9, ptr noundef @.str.4)
          to label %48 unwind label %57

48:                                               ; preds = %46
  %49 = invoke noundef nonnull align 8 dereferenceable(56) ptr @_ZN6google8protobuf8internal10LogMessagelsEPKc(ptr noundef nonnull align 8 dereferenceable(56) %47, ptr noundef @.str.3)
          to label %50 unwind label %57

50:                                               ; preds = %48
  %51 = load ptr, ptr %3, align 8, !tbaa !58
  %52 = invoke noundef nonnull align 8 dereferenceable(32) ptr @_ZNK6google8protobuf15FieldDescriptor4nameB5cxx11Ev(ptr noundef nonnull align 8 dereferenceable(72) %51)
          to label %53 unwind label %57

53:                                               ; preds = %50
  %54 = invoke noundef nonnull align 8 dereferenceable(56) ptr @_ZN6google8protobuf8internal10LogMessagelsERKNSt7__cxx1112basic_stringIcSt11char_traitsIcESaIcEEE(ptr noundef nonnull align 8 dereferenceable(56) %49, ptr noundef nonnull align 8 dereferenceable(32) %52)
          to label %55 unwind label %57

55:                                               ; preds = %53
  call void @llvm.lifetime.start.p0(i64 1, ptr %10) #3
  invoke void @_ZN6google8protobuf8internal11LogFinisheraSERNS1_10LogMessageE(ptr noundef nonnull align 1 dereferenceable(1) %10, ptr noundef nonnull align 8 dereferenceable(56) %54)
          to label %56 unwind label %61

56:                                               ; preds = %55
  call void @llvm.lifetime.end.p0(i64 1, ptr %10) #3
  call void @_ZN6google8protobuf8internal10LogMessageD1Ev(ptr noundef nonnull align 8 dereferenceable(56) %9) #3
  call void @llvm.lifetime.end.p0(i64 56, ptr %9) #3
  br label %66

57:                                               ; preds = %53, %50, %48, %46
  %58 = landingpad { ptr, i32 }
          cleanup
  %59 = extractvalue { ptr, i32 } %58, 0
  store ptr %59, ptr %6, align 8
  %60 = extractvalue { ptr, i32 } %58, 1
  store i32 %60, ptr %7, align 4
  br label %65

61:                                               ; preds = %55
  %62 = landingpad { ptr, i32 }
          cleanup
  %63 = extractvalue { ptr, i32 } %62, 0
  store ptr %63, ptr %6, align 8
  %64 = extractvalue { ptr, i32 } %62, 1
  store i32 %64, ptr %7, align 4
  call void @llvm.lifetime.end.p0(i64 1, ptr %10) #3
  br label %65

65:                                               ; preds = %61, %57
  call void @_ZN6google8protobuf8internal10LogMessageD1Ev(ptr noundef nonnull align 8 dereferenceable(56) %9) #3
  call void @llvm.lifetime.end.p0(i64 56, ptr %9) #3
  br label %68

66:                                               ; preds = %56, %43, %40
  br label %67

67:                                               ; preds = %13, %66, %30
  ret void

68:                                               ; preds = %65, %39
  %69 = load ptr, ptr %6, align 8
  %70 = load i32, ptr %7, align 4
  %71 = insertvalue { ptr, i32 } poison, ptr %69, 0
  %72 = insertvalue { ptr, i32 } %71, i32 %70, 1
  resume { ptr, i32 } %72
}