; Function Attrs: mustprogress uwtable
define hidden void @_ZN6google8protobuf15CheckFieldIndexEPKNS0_15FieldDescriptorEi(ptr noundef readonly %0, i32 noundef %1) local_unnamed_addr #3 personality ptr @__gxx_personality_v0 {
  %3 = alloca %"class.google::protobuf::internal::LogMessage", align 8
  %4 = alloca %"class.google::protobuf::internal::LogFinisher", align 1
  %5 = alloca %"class.google::protobuf::internal::LogMessage", align 8
  %6 = alloca %"class.google::protobuf::internal::LogFinisher", align 1
  %7 = icmp eq ptr %0, null
  br i1 %7, label %45, label %8

8:                                                ; preds = %2
  %9 = getelementptr inbounds nuw i8, ptr %0, i64 1
  %10 = load i8, ptr %9, align 1
  %11 = and i8 %10, 96
  %12 = icmp eq i8 %11, 96
  %13 = icmp eq i32 %1, -1
  %or.cond = and i1 %13, %12
  br i1 %or.cond, label %14, label %29

14:                                               ; preds = %8
  call void @llvm.lifetime.start.p0(i64 56, ptr nonnull %3) #31
  call void @_ZN6google8protobuf8internal10LogMessageC1ENS0_8LogLevelEPKci(ptr noundef nonnull align 8 dereferenceable(56) %3, i32 noundef 2, ptr noundef nonnull @.str.1, i32 noundef 162)
  %15 = invoke noundef nonnull align 8 dereferenceable(56) ptr @_ZN6google8protobuf8internal10LogMessagelsEPKc(ptr noundef nonnull align 8 dereferenceable(56) %3, ptr noundef nonnull @.str.2)
          to label %16 unwind label %24

16:                                               ; preds = %14
  %17 = invoke noundef nonnull align 8 dereferenceable(56) ptr @_ZN6google8protobuf8internal10LogMessagelsEPKc(ptr noundef nonnull align 8 dereferenceable(56) %15, ptr noundef nonnull @.str.3)
          to label %18 unwind label %24

18:                                               ; preds = %16
  %19 = getelementptr inbounds nuw i8, ptr %0, i64 8
  %20 = load ptr, ptr %19, align 8, !tbaa !108
  %21 = invoke noundef nonnull align 8 dereferenceable(56) ptr @_ZN6google8protobuf8internal10LogMessagelsERKNSt7__cxx1112basic_stringIcSt11char_traitsIcESaIcEEE(ptr noundef nonnull align 8 dereferenceable(56) %17, ptr noundef nonnull align 8 dereferenceable(32) %20)
          to label %22 unwind label %24

22:                                               ; preds = %18
  call void @llvm.lifetime.start.p0(i64 1, ptr nonnull %4) #31
  invoke void @_ZN6google8protobuf8internal11LogFinisheraSERNS1_10LogMessageE(ptr noundef nonnull align 1 dereferenceable(1) %4, ptr noundef nonnull align 8 dereferenceable(56) %21)
          to label %23 unwind label %26

23:                                               ; preds = %22
  call void @llvm.lifetime.end.p0(i64 1, ptr nonnull %4) #31
  call void @_ZN6google8protobuf8internal10LogMessageD1Ev(ptr noundef nonnull align 8 dereferenceable(56) %3) #31
  call void @llvm.lifetime.end.p0(i64 56, ptr nonnull %3) #31
  br label %45

24:                                               ; preds = %18, %16, %14
  %25 = landingpad { ptr, i32 }
          cleanup
  br label %28

26:                                               ; preds = %22
  %27 = landingpad { ptr, i32 }
          cleanup
  call void @llvm.lifetime.end.p0(i64 1, ptr nonnull %4) #31
  br label %28

28:                                               ; preds = %26, %24
  %.pn17 = phi { ptr, i32 } [ %27, %26 ], [ %25, %24 ]
  call void @_ZN6google8protobuf8internal10LogMessageD1Ev(ptr noundef nonnull align 8 dereferenceable(56) %3) #31
  call void @llvm.lifetime.end.p0(i64 56, ptr nonnull %3) #31
  br label %46

29:                                               ; preds = %8
  %or.cond3.not = or i1 %13, %12
  br i1 %or.cond3.not, label %45, label %30

30:                                               ; preds = %29
  call void @llvm.lifetime.start.p0(i64 56, ptr nonnull %5) #31
  call void @_ZN6google8protobuf8internal10LogMessageC1ENS0_8LogLevelEPKci(ptr noundef nonnull align 8 dereferenceable(56) %5, i32 noundef 2, ptr noundef nonnull @.str.1, i32 noundef 165)
  %31 = invoke noundef nonnull align 8 dereferenceable(56) ptr @_ZN6google8protobuf8internal10LogMessagelsEPKc(ptr noundef nonnull align 8 dereferenceable(56) %5, ptr noundef nonnull @.str.4)
          to label %32 unwind label %40

32:                                               ; preds = %30
  %33 = invoke noundef nonnull align 8 dereferenceable(56) ptr @_ZN6google8protobuf8internal10LogMessagelsEPKc(ptr noundef nonnull align 8 dereferenceable(56) %31, ptr noundef nonnull @.str.3)
          to label %34 unwind label %40

34:                                               ; preds = %32
  %35 = getelementptr inbounds nuw i8, ptr %0, i64 8
  %36 = load ptr, ptr %35, align 8, !tbaa !108
  %37 = invoke noundef nonnull align 8 dereferenceable(56) ptr @_ZN6google8protobuf8internal10LogMessagelsERKNSt7__cxx1112basic_stringIcSt11char_traitsIcESaIcEEE(ptr noundef nonnull align 8 dereferenceable(56) %33, ptr noundef nonnull align 8 dereferenceable(32) %36)
          to label %38 unwind label %40

38:                                               ; preds = %34
  call void @llvm.lifetime.start.p0(i64 1, ptr nonnull %6) #31
  invoke void @_ZN6google8protobuf8internal11LogFinisheraSERNS1_10LogMessageE(ptr noundef nonnull align 1 dereferenceable(1) %6, ptr noundef nonnull align 8 dereferenceable(56) %37)
          to label %39 unwind label %42

39:                                               ; preds = %38
  call void @llvm.lifetime.end.p0(i64 1, ptr nonnull %6) #31
  call void @_ZN6google8protobuf8internal10LogMessageD1Ev(ptr noundef nonnull align 8 dereferenceable(56) %5) #31
  call void @llvm.lifetime.end.p0(i64 56, ptr nonnull %5) #31
  br label %45

40:                                               ; preds = %34, %32, %30
  %41 = landingpad { ptr, i32 }
          cleanup
  br label %44

42:                                               ; preds = %38
  %43 = landingpad { ptr, i32 }
          cleanup
  call void @llvm.lifetime.end.p0(i64 1, ptr nonnull %6) #31
  br label %44

44:                                               ; preds = %42, %40
  %.pn = phi { ptr, i32 } [ %43, %42 ], [ %41, %40 ]
  call void @_ZN6google8protobuf8internal10LogMessageD1Ev(ptr noundef nonnull align 8 dereferenceable(56) %5) #31
  call void @llvm.lifetime.end.p0(i64 56, ptr nonnull %5) #31
  br label %46

45:                                               ; preds = %29, %39, %2, %23
  ret void

46:                                               ; preds = %44, %28
  %.pn17.pn = phi { ptr, i32 } [ %.pn17, %28 ], [ %.pn, %44 ]
  resume { ptr, i32 } %.pn17.pn
}